Certificate:
    Data:
        Version: 3 (0x2)
        Serial Number: 268435673 (0x100000d9)
        Signature Algorithm: sha256WithRSAEncryption
        Issuer: C=DE, ST=Hessen, O=privacyidea, CN=CA001
        Validity
            Not Before: Aug 20 14:30:44 2021 GMT
            Not After : Aug 20 14:30:44 2022 GMT
        Subject: C=DE, ST=Hessen, O=privacyidea, CN=requester.localdomain
        Subject Public Key Info:
            Public Key Algorithm: rsaEncryption
                RSA Public-Key: (2048 bit)
                Modulus:
                    00:cd:be:14:4f:fa:ce:01:3f:42:22:1b:1d:9c:af:
                    dd:92:d2:7f:db:6c:b7:3e:39:43:43:6b:13:03:f1:
                    05:f4:07:74:bc:76:69:28:0b:af:19:8e:d7:fc:e3:
                    cd:c6:58:f2:ca:7f:08:6d:53:fc:07:02:44:24:c6:
                    b4:34:4c:8c:04:fe:33:0e:40:e2:20:ba:02:73:5a:
                    f7:f5:4f:63:6e:cc:c6:b6:df:54:1d:37:39:7d:51:
                    36:26:5f:bd:dc:3f:a8:8b:6b:a2:ae:b6:9d:d6:21:
                    e7:df:41:b8:7a:28:2a:68:48:ca:a8:2d:ed:e1:e9:
                    46:5e:5a:72:6d:b4:84:38:87:91:fd:94:11:0b:28:
                    84:c6:c2:2f:2a:fb:01:f9:36:7a:09:75:d1:33:88:
                    3c:73:41:5b:c8:bf:94:89:70:a1:f0:c0:b9:2e:50:
                    53:1e:b1:17:64:69:f4:2d:81:e0:a9:0d:0e:32:e9:
                    ba:55:8a:85:f1:1b:6f:49:79:b4:7f:88:c3:0d:3e:
                    54:88:9b:3d:1f:38:8c:04:f3:ee:6a:63:2b:f5:c6:
                    db:b4:83:aa:c4:78:41:3a:7d:4b:e1:c8:3e:71:ca:
                    1b:61:59:ea:c6:c4:ca:32:5e:c9:e9:bf:12:29:e6:
                    c6:c3:63:fe:a0:55:da:7a:f1:60:98:4d:26:ed:fa:
                    70:2d
                Exponent: 65537 (0x10001)
        X509v3 extensions:
            X509v3 Key Usage: 
                Digital Signature, Key Encipherment
            X509v3 Basic Constraints: 
                CA:FALSE
            Netscape Cert Type: 
                SSL Server
            Netscape Comment: 
                OpenSSL Generated Server Certificate
            X509v3 Subject Key Identifier: 
                53:3F:ED:5D:09:07:B3:65:7B:AB:45:C9:24:5B:09:77:80:0A:96:ED
            X509v3 Authority Key Identifier: 
                keyid:F4:A7:C0:CC:91:46:AF:64:F3:91:F2:27:F8:C8:B2:6F:8A:87:32:73
                DirName:/C=DE/ST=Hessen/O=privacyidea/CN=CA001
                serial:FB:C8:EB:AC:83:CD:12:07

            X509v3 Extended Key Usage: 
                TLS Web Server Authentication
    Signature Algorithm: sha256WithRSAEncryption
         8e:a7:85:ad:3e:bb:fd:7e:ae:c3:d6:21:72:c0:55:b9:3e:87:
         ca:ae:ff:7f:ac:00:ad:f6:78:b4:64:c1:7a:7c:62:56:23:ac:
         9e:4f:71:40:14:2f:e0:4a:f1:e4:ea:96:63:f9:31:ad:ac:06:
         70:87:69:6d:cd:f8:a2:01:63:d0:95:4d:08:8f:c4:50:89:38:
         47:b5:0d:9a:40:92:9f:61:5e:d3:9f:55:ac:75:e0:e4:9a:8d:
         66:9c:fd:b3:f3:e7:cd:dc:c5:c7:87:ec:7c:b4:6d:78:45:4c:
         dd:f7:51:c0:4e:12:da:d3:06:a8:73:5e:81:0a:be:0c:89:2b:
         3d:6c:da:43:c6:8b:88:4f:f1:37:b5:0c:88:f1:9c:67:a0:35:
         1e:15:e2:6e:46:16:98:ee:1f:58:ed:00:b5:0b:d2:88:2d:d7:
         3a:4b:ba:bc:10:60:ed:8f:d5:34:7c:95:22:77:d1:08:f3:60:
         69:bf:e3:e4:1a:e9:57:bb:ff:19:80:f6:fd:5c:20:76:1f:27:
         ea:b2:4a:7a:25:78:d9:2c:20:a4:c4:7c:fe:3f:93:5c:e8:3d:
         15:2f:0d:8f:e6:af:ee:72:cf:a4:27:06:f4:5a:4e:6b:8a:da:
         ed:69:e7:89:54:7f:03:b6:d8:4f:1e:00:4f:bd:23:50:83:c7:
         b8:b9:a8:5a
-----BEGIN CERTIFICATE-----
MIIEJjCCAw6gAwIBAgIEEAAA2TANBgkqhkiG9w0BAQsFADBEMQswCQYDVQQGEwJE
RTEPMA0GA1UECAwGSGVzc2VuMRQwEgYDVQQKDAtwcml2YWN5aWRlYTEOMAwGA1UE
AwwFQ0EwMDEwHhcNMjEwODIwMTQzMDQ0WhcNMjIwODIwMTQzMDQ0WjBUMQswCQYD
VQQGEwJERTEPMA0GA1UECAwGSGVzc2VuMRQwEgYDVQQKDAtwcml2YWN5aWRlYTEe
MBwGA1UEAwwVcmVxdWVzdGVyLmxvY2FsZG9tYWluMIIBIjANBgkqhkiG9w0BAQEF
AAOCAQ8AMIIBCgKCAQEAzb4UT/rOAT9CIhsdnK/dktJ/22y3PjlDQ2sTA/EF9Ad0
vHZpKAuvGY7X/OPNxljyyn8IbVP8BwJEJMa0NEyMBP4zDkDiILoCc1r39U9jbszG
tt9UHTc5fVE2Jl+93D+oi2uirrad1iHn30G4eigqaEjKqC3t4elGXlpybbSEOIeR
/ZQRCyiExsIvKvsB+TZ6CXXRM4g8c0FbyL+UiXCh8MC5LlBTHrEXZGn0LYHgqQ0O
Mum6VYqF8RtvSXm0f4jDDT5UiJs9HziMBPPuamMr9cbbtIOqxHhBOn1L4cg+ccob
YVnqxsTKMl7J6b8SKebGw2P+oFXaevFgmE0m7fpwLQIDAQABo4IBDjCCAQowCwYD
VR0PBAQDAgWgMAkGA1UdEwQCMAAwEQYJYIZIAYb4QgEBBAQDAgZAMDMGCWCGSAGG
+EIBDQQmFiRPcGVuU1NMIEdlbmVyYXRlZCBTZXJ2ZXIgQ2VydGlmaWNhdGUwHQYD
VR0OBBYEFFM/7V0JB7Nle6tFySRbCXeACpbtMHQGA1UdIwRtMGuAFPSnwMyRRq9k
85HyJ/jIsm+KhzJzoUikRjBEMQswCQYDVQQGEwJERTEPMA0GA1UECAwGSGVzc2Vu
MRQwEgYDVQQKDAtwcml2YWN5aWRlYTEOMAwGA1UEAwwFQ0EwMDGCCQD7yOusg80S
BzATBgNVHSUEDDAKBggrBgEFBQcDATANBgkqhkiG9w0BAQsFAAOCAQEAjqeFrT67
/X6uw9YhcsBVuT6Hyq7/f6wArfZ4tGTBenxiViOsnk9xQBQv4Erx5OqWY/kxrawG
cIdpbc34ogFj0JVNCI/EUIk4R7UNmkCSn2Fe059VrHXg5JqNZpz9s/PnzdzFx4fs
fLRteEVM3fdRwE4S2tMGqHNegQq+DIkrPWzaQ8aLiE/xN7UMiPGcZ6A1HhXibkYW
mO4fWO0AtQvSiC3XOku6vBBg7Y/VNHyVInfRCPNgab/j5BrpV7v/GYD2/Vwgdh8n
6rJKeiV42SwgpMR8/j+TXOg9FS8Nj+av7nLPpCcG9FpOa4ra7WnniVR/A7bYTx4A
T70jUIPHuLmoWg==
-----END CERTIFICATE-----
