Certificate:
    Data:
        Version: 3 (0x2)
        Serial Number: 268435675 (0x100000db)
        Signature Algorithm: sha256WithRSAEncryption
        Issuer: C=DE, ST=Hessen, O=privacyidea, CN=CA001
        Validity
            Not Before: Aug 20 14:30:45 2021 GMT
            Not After : Aug 20 14:30:45 2022 GMT
        Subject: OU=realm1, CN=cornelius/emailAddress=user@localhost.localdomain
        Subject Public Key Info:
            Public Key Algorithm: rsaEncryption
                RSA Public-Key: (2048 bit)
                Modulus:
                    00:ae:5f:99:8c:0d:5f:99:a5:b0:21:47:41:bd:b2:
                    45:d2:ba:f2:cc:55:d5:5f:9b:aa:d0:19:86:61:91:
                    17:3e:53:9d:2d:40:b4:9e:0b:24:25:1a:9d:de:27:
                    ae:23:ce:66:2d:80:01:6e:ad:22:1d:35:80:3c:ee:
                    5b:64:4f:0d:e9:56:f7:ba:4b:f3:9b:43:f5:ff:f2:
                    31:26:22:65:af:bb:f1:f2:8b:e6:a4:1d:a5:09:75:
                    2d:fc:ff:dc:fc:3e:fa:9a:35:7a:e0:74:a5:49:c3:
                    67:a0:74:da:3a:bb:8b:21:f3:ba:52:e9:17:3e:dc:
                    10:b0:a7:6e:1f:db:aa:f2:ee:12:9f:5d:fc:98:40:
                    c9:2d:15:56:14:b3:3e:6c:9e:dc:fe:9d:47:d9:6a:
                    a4:f1:50:57:cd:71:69:63:39:a2:f6:52:1c:30:68:
                    14:96:1e:8e:ae:a5:18:c3:15:1d:00:88:12:18:63:
                    ca:7c:2a:0b:f3:12:f4:06:e8:89:21:30:e7:2e:35:
                    09:4e:6c:7b:c9:e8:3e:23:d7:bc:d5:9c:94:00:0a:
                    a7:65:21:8d:df:47:d7:4b:3c:a7:48:2d:d0:b9:8d:
                    b2:92:6f:3f:79:ef:63:80:88:82:08:ed:14:eb:05:
                    73:1b:ba:4d:af:a6:d7:57:33:45:2f:de:a7:37:17:
                    5a:15
                Exponent: 65537 (0x10001)
        X509v3 extensions:
            X509v3 Key Usage: 
                Digital Signature, Key Encipherment
            X509v3 Basic Constraints: 
                CA:FALSE
            Netscape Cert Type: 
                SSL Server
            Netscape Comment: 
                OpenSSL Generated Server Certificate
            X509v3 Subject Key Identifier: 
                4C:4A:4E:B0:E9:7F:EB:09:2D:82:4B:9A:47:B8:AE:61:44:9F:0B:DC
            X509v3 Authority Key Identifier: 
                keyid:F4:A7:C0:CC:91:46:AF:64:F3:91:F2:27:F8:C8:B2:6F:8A:87:32:73
                DirName:/C=DE/ST=Hessen/O=privacyidea/CN=CA001
                serial:FB:C8:EB:AC:83:CD:12:07

            X509v3 Extended Key Usage: 
                TLS Web Server Authentication
    Signature Algorithm: sha256WithRSAEncryption
         72:f2:d0:65:40:3c:6e:2e:91:eb:1f:1f:5f:cd:26:3a:8e:f4:
         d8:c4:d1:dd:8d:6b:48:cc:45:89:50:80:9f:6c:f8:84:84:a1:
         e8:6c:80:ae:07:77:b6:67:a1:7d:c3:72:a5:bb:73:5a:53:64:
         98:48:46:21:19:38:1f:7d:f2:a0:8d:54:ed:f8:f2:2b:f6:6c:
         69:19:11:ea:6e:d7:4f:51:9e:55:ec:ab:06:98:2a:d9:c4:6d:
         fb:a6:3f:12:c3:1e:12:52:87:22:35:84:ea:4e:61:40:6b:13:
         11:f8:0a:57:9a:ad:fe:c9:50:67:f3:07:c0:e2:22:7c:46:76:
         e9:27:c0:cb:15:f7:2b:bd:2e:e8:2a:f8:77:bd:cd:a4:e9:bd:
         4e:96:c9:76:de:27:8d:36:86:c4:ad:e7:31:e0:00:be:8a:9b:
         ce:94:39:5c:85:e8:29:b5:e7:c7:89:90:44:56:f8:d2:ed:8f:
         90:82:fa:2b:16:20:ee:36:ce:97:b6:7e:ca:1e:f8:2d:53:8a:
         bc:25:4d:b1:4d:06:3a:ac:f1:0c:04:77:91:86:4b:80:f4:01:
         29:4f:08:2a:3e:d4:2c:cd:7e:3e:57:f4:b0:cf:f9:72:a6:ae:
         37:2b:52:c9:31:b2:fb:45:17:97:ca:b8:c6:9a:ec:e8:fb:0c:
         db:db:77:4c
-----BEGIN CERTIFICATE-----
MIIEIjCCAwqgAwIBAgIEEAAA2zANBgkqhkiG9w0BAQsFADBEMQswCQYDVQQGEwJE
RTEPMA0GA1UECAwGSGVzc2VuMRQwEgYDVQQKDAtwcml2YWN5aWRlYTEOMAwGA1UE
AwwFQ0EwMDEwHhcNMjEwODIwMTQzMDQ1WhcNMjIwODIwMTQzMDQ1WjBQMQ8wDQYD
VQQLDAZyZWFsbTExEjAQBgNVBAMMCWNvcm5lbGl1czEpMCcGCSqGSIb3DQEJARYa
dXNlckBsb2NhbGhvc3QubG9jYWxkb21haW4wggEiMA0GCSqGSIb3DQEBAQUAA4IB
DwAwggEKAoIBAQCuX5mMDV+ZpbAhR0G9skXSuvLMVdVfm6rQGYZhkRc+U50tQLSe
CyQlGp3eJ64jzmYtgAFurSIdNYA87ltkTw3pVve6S/ObQ/X/8jEmImWvu/Hyi+ak
HaUJdS38/9z8PvqaNXrgdKVJw2egdNo6u4sh87pS6Rc+3BCwp24f26ry7hKfXfyY
QMktFVYUsz5sntz+nUfZaqTxUFfNcWljOaL2UhwwaBSWHo6upRjDFR0AiBIYY8p8
KgvzEvQG6IkhMOcuNQlObHvJ6D4j17zVnJQACqdlIY3fR9dLPKdILdC5jbKSbz95
72OAiIII7RTrBXMbuk2vptdXM0Uv3qc3F1oVAgMBAAGjggEOMIIBCjALBgNVHQ8E
BAMCBaAwCQYDVR0TBAIwADARBglghkgBhvhCAQEEBAMCBkAwMwYJYIZIAYb4QgEN
BCYWJE9wZW5TU0wgR2VuZXJhdGVkIFNlcnZlciBDZXJ0aWZpY2F0ZTAdBgNVHQ4E
FgQUTEpOsOl/6wktgkuaR7iuYUSfC9wwdAYDVR0jBG0wa4AU9KfAzJFGr2TzkfIn
+Miyb4qHMnOhSKRGMEQxCzAJBgNVBAYTAkRFMQ8wDQYDVQQIDAZIZXNzZW4xFDAS
BgNVBAoMC3ByaXZhY3lpZGVhMQ4wDAYDVQQDDAVDQTAwMYIJAPvI66yDzRIHMBMG
A1UdJQQMMAoGCCsGAQUFBwMBMA0GCSqGSIb3DQEBCwUAA4IBAQBy8tBlQDxuLpHr
Hx9fzSY6jvTYxNHdjWtIzEWJUICfbPiEhKHobICuB3e2Z6F9w3Klu3NaU2SYSEYh
GTgfffKgjVTt+PIr9mxpGRHqbtdPUZ5V7KsGmCrZxG37pj8Swx4SUociNYTqTmFA
axMR+ApXmq3+yVBn8wfA4iJ8RnbpJ8DLFfcrvS7oKvh3vc2k6b1Olsl23ieNNobE
recx4AC+ipvOlDlchegptefHiZBEVvjS7Y+QgvorFiDuNs6Xtn7KHvgtU4q8JU2x
TQY6rPEMBHeRhkuA9AEpTwgqPtQszX4+V/Swz/lypq43K1LJMbL7RReXyrjGmuzo
+wzb23dM
-----END CERTIFICATE-----
