Certificate:
    Data:
        Version: 3 (0x2)
        Serial Number: 268435676 (0x100000dc)
        Signature Algorithm: sha256WithRSAEncryption
        Issuer: C=DE, ST=Hessen, O=privacyidea, CN=CA001
        Validity
            Not Before: Aug 20 14:32:26 2021 GMT
            Not After : Aug 20 14:32:26 2022 GMT
        Subject: CN=selfservice,CN=user,O=realm1/emailAddress=meine
        Subject Public Key Info:
            Public Key Algorithm: rsaEncryption
                RSA Public-Key: (2048 bit)
                Modulus:
                    00:cf:3c:d4:33:0e:12:c4:e6:da:cd:b6:56:a1:1c:
                    26:bb:26:1c:8a:4a:73:a8:58:8a:b6:1e:b3:8b:99:
                    d2:1d:07:c2:92:89:79:c0:69:d8:c8:df:28:61:98:
                    1e:b3:fe:ae:2b:bd:78:a9:f7:6e:47:dc:a3:a0:16:
                    8c:85:02:c1:4e:92:fd:72:6e:f0:c8:03:29:9b:b8:
                    00:6e:c0:83:95:c8:34:20:36:9c:b3:e5:e4:e6:76:
                    73:a3:1a:ad:40:96:e0:53:54:00:ec:76:79:9a:c6:
                    0d:7e:b6:bd:29:ec:83:f3:cb:89:a4:cb:6c:00:ba:
                    0c:c5:78:0f:ff:69:b8:94:f4:04:70:43:3f:d8:9e:
                    d7:a7:fb:5d:ce:75:8e:da:e7:c4:07:b1:9d:de:6f:
                    88:4b:b6:4d:9a:cf:f9:bc:fa:9f:cd:32:6d:f6:3a:
                    0b:0d:23:42:78:ec:97:42:bf:0e:4d:60:56:e1:d3:
                    02:f2:19:cb:84:57:90:e5:70:a1:a2:83:35:86:e2:
                    da:86:9f:f9:8a:c4:79:b3:52:28:da:cb:bb:34:ca:
                    d3:da:91:4a:cf:8d:76:a2:b2:6b:9b:f9:96:fd:09:
                    2a:da:11:23:4d:f0:cb:d6:b2:b1:0e:12:6c:9a:19:
                    65:98:87:ca:e4:ee:24:ce:44:ac:90:8f:9d:1b:c5:
                    2a:9d
                Exponent: 65537 (0x10001)
        X509v3 extensions:
            X509v3 Key Usage: 
                Digital Signature, Key Encipherment
            X509v3 Basic Constraints: 
                CA:FALSE
            Netscape Cert Type: 
                SSL Server
            Netscape Comment: 
                OpenSSL Generated Server Certificate
            X509v3 Subject Key Identifier: 
                4D:07:90:AD:FF:1D:0D:E7:1A:DD:D6:2E:FA:BA:34:CB:AA:1F:24:C6
            X509v3 Authority Key Identifier: 
                keyid:F4:A7:C0:CC:91:46:AF:64:F3:91:F2:27:F8:C8:B2:6F:8A:87:32:73
                DirName:/C=DE/ST=Hessen/O=privacyidea/CN=CA001
                serial:FB:C8:EB:AC:83:CD:12:07

            X509v3 Extended Key Usage: 
                TLS Web Server Authentication
    Signature Algorithm: sha256WithRSAEncryption
         19:41:be:d4:27:37:47:27:1e:6b:51:cb:6e:69:fb:53:28:3f:
         63:7a:33:99:9f:b6:a7:7d:a2:0e:37:b1:03:00:13:4b:91:8f:
         82:af:d8:db:d7:16:a9:8c:ba:df:34:5b:51:23:39:57:80:90:
         33:ac:28:f1:ac:f9:66:c3:42:20:93:02:af:07:c0:a8:be:62:
         90:4d:d3:74:72:f8:17:c1:30:87:ae:04:20:d2:d1:29:73:96:
         4f:6c:a4:5b:19:6c:a1:ac:a2:28:27:66:58:a8:5f:fa:f4:63:
         89:7c:af:0f:9f:ca:b9:a8:bb:02:53:34:cc:32:77:85:fd:4f:
         22:bd:fa:f9:98:c3:68:6b:20:14:ef:ad:49:ea:69:8c:32:f5:
         ee:bb:b0:e3:be:5c:6b:f4:9e:4b:74:19:59:2e:5d:0b:93:c7:
         d7:91:d1:7a:02:0d:1e:69:a1:a7:aa:1e:f9:07:f5:63:2d:4c:
         ae:55:11:8c:5c:36:9d:30:55:2c:37:c0:e3:31:a3:e8:1e:ae:
         a4:b1:ac:cc:e7:fb:77:c6:ee:e7:50:83:9c:c5:30:d7:74:96:
         63:01:33:78:33:4f:16:f0:f5:df:33:bd:8a:6a:71:cf:57:58:
         6a:5a:92:52:1d:17:20:0c:be:e7:0b:b4:f7:ee:71:43:a4:3a:
         7a:14:df:a7
-----BEGIN CERTIFICATE-----
MIIEDzCCAvegAwIBAgIEEAAA3DANBgkqhkiG9w0BAQsFADBEMQswCQYDVQQGEwJE
RTEPMA0GA1UECAwGSGVzc2VuMRQwEgYDVQQKDAtwcml2YWN5aWRlYTEOMAwGA1UE
AwwFQ0EwMDEwHhcNMjEwODIwMTQzMjI2WhcNMjIwODIwMTQzMjI2WjA9MSUwIwYD
VQQDDBxzZWxmc2VydmljZSxDTj11c2VyLE89cmVhbG0xMRQwEgYJKoZIhvcNAQkB
FgVtZWluZTCCASIwDQYJKoZIhvcNAQEBBQADggEPADCCAQoCggEBAM881DMOEsTm
2s22VqEcJrsmHIpKc6hYirYes4uZ0h0HwpKJecBp2MjfKGGYHrP+riu9eKn3bkfc
o6AWjIUCwU6S/XJu8MgDKZu4AG7Ag5XINCA2nLPl5OZ2c6MarUCW4FNUAOx2eZrG
DX62vSnsg/PLiaTLbAC6DMV4D/9puJT0BHBDP9ie16f7Xc51jtrnxAexnd5viEu2
TZrP+bz6n80ybfY6Cw0jQnjsl0K/Dk1gVuHTAvIZy4RXkOVwoaKDNYbi2oaf+YrE
ebNSKNrLuzTK09qRSs+NdqKya5v5lv0JKtoRI03wy9aysQ4SbJoZZZiHyuTuJM5E
rJCPnRvFKp0CAwEAAaOCAQ4wggEKMAsGA1UdDwQEAwIFoDAJBgNVHRMEAjAAMBEG
CWCGSAGG+EIBAQQEAwIGQDAzBglghkgBhvhCAQ0EJhYkT3BlblNTTCBHZW5lcmF0
ZWQgU2VydmVyIENlcnRpZmljYXRlMB0GA1UdDgQWBBRNB5Ct/x0N5xrd1i76ujTL
qh8kxjB0BgNVHSMEbTBrgBT0p8DMkUavZPOR8if4yLJviocyc6FIpEYwRDELMAkG
A1UEBhMCREUxDzANBgNVBAgMBkhlc3NlbjEUMBIGA1UECgwLcHJpdmFjeWlkZWEx
DjAMBgNVBAMMBUNBMDAxggkA+8jrrIPNEgcwEwYDVR0lBAwwCgYIKwYBBQUHAwEw
DQYJKoZIhvcNAQELBQADggEBABlBvtQnN0cnHmtRy25p+1MoP2N6M5mftqd9og43
sQMAE0uRj4Kv2NvXFqmMut80W1EjOVeAkDOsKPGs+WbDQiCTAq8HwKi+YpBN03Ry
+BfBMIeuBCDS0Slzlk9spFsZbKGsoignZlioX/r0Y4l8rw+fyrmouwJTNMwyd4X9
TyK9+vmYw2hrIBTvrUnqaYwy9e67sOO+XGv0nkt0GVkuXQuTx9eR0XoCDR5poaeq
HvkH9WMtTK5VEYxcNp0wVSw3wOMxo+gerqSxrMzn+3fG7udQg5zFMNd0lmMBM3gz
Txbw9d8zvYpqcc9XWGpaklIdFyAMvucLtPfucUOkOnoU36c=
-----END CERTIFICATE-----
