Certificate:
    Data:
        Version: 3 (0x2)
        Serial Number: 268435674 (0x100000da)
        Signature Algorithm: sha256WithRSAEncryption
        Issuer: C=DE, ST=Hessen, O=privacyidea, CN=CA001
        Validity
            Not Before: Aug 20 14:30:45 2021 GMT
            Not After : Aug 20 14:30:45 2022 GMT
        Subject: CN=cn=cornelius
        Subject Public Key Info:
            Public Key Algorithm: rsaEncryption
                RSA Public-Key: (2048 bit)
                Modulus:
                    00:ce:a4:39:30:25:73:e4:9d:e6:37:3b:85:59:83:
                    ef:a3:6e:f9:83:b9:f7:48:b0:0b:d5:e8:05:40:61:
                    cd:c5:5a:bc:11:2f:5b:4e:d0:4f:b8:d0:e8:7f:05:
                    ab:ad:24:0b:90:d4:3f:60:ec:15:b6:4e:be:8e:d9:
                    26:ab:f2:2f:7f:35:c2:a6:a1:bc:52:3a:d9:88:fb:
                    b3:fa:71:20:b9:51:0e:f8:af:0d:16:be:bd:5d:b9:
                    ab:30:d5:ac:6b:3c:bc:ee:28:4a:4f:6f:d4:09:15:
                    f7:98:af:77:db:36:15:2e:1e:ee:0f:d0:d9:60:ad:
                    db:b9:c4:3f:c6:25:32:f9:e3:e9:50:b8:ec:84:a0:
                    c4:d2:9c:fd:ce:25:80:85:7e:3a:ad:4c:a7:40:1b:
                    0a:58:18:9f:c2:5e:36:e1:d1:44:e9:46:b6:dc:b4:
                    28:a2:ec:ed:02:f7:25:79:e1:86:8e:69:67:52:ee:
                    82:21:b7:84:2d:cc:e7:a8:39:57:7d:a3:1e:e9:50:
                    63:77:29:ab:e4:a5:ff:dc:ee:4c:4b:5e:08:2b:62:
                    08:2d:75:b8:26:6c:93:eb:f5:45:ea:cd:83:58:53:
                    15:46:e6:6b:43:c1:2f:d9:88:4b:3d:d5:fd:0c:ff:
                    51:52:ed:54:fb:27:2d:59:ef:4c:50:ce:71:cd:eb:
                    5a:99
                Exponent: 65537 (0x10001)
        X509v3 extensions:
            X509v3 Key Usage: 
                Digital Signature, Key Encipherment
            X509v3 Basic Constraints: 
                CA:FALSE
            Netscape Cert Type: 
                SSL Server
            Netscape Comment: 
                OpenSSL Generated Server Certificate
            X509v3 Subject Key Identifier: 
                0E:D5:BA:4E:7D:92:57:15:FD:61:4E:34:5B:E9:62:D0:20:1C:7D:08
            X509v3 Authority Key Identifier: 
                keyid:F4:A7:C0:CC:91:46:AF:64:F3:91:F2:27:F8:C8:B2:6F:8A:87:32:73
                DirName:/C=DE/ST=Hessen/O=privacyidea/CN=CA001
                serial:FB:C8:EB:AC:83:CD:12:07

            X509v3 Extended Key Usage: 
                TLS Web Server Authentication
    Signature Algorithm: sha256WithRSAEncryption
         9c:4e:69:9f:93:5a:b8:b0:0c:a5:e6:a0:31:7b:42:5b:3f:03:
         24:54:59:d5:a9:e3:e9:7f:29:9e:d0:88:5f:55:9f:ac:20:72:
         0a:81:d1:15:07:11:50:96:fa:6e:27:4e:43:20:03:42:c0:57:
         bf:d1:dd:59:62:ae:3f:65:09:06:4d:6a:78:f9:c3:6d:3c:d1:
         e4:ca:0f:af:23:16:09:79:b7:46:0a:8d:89:0d:47:44:20:78:
         df:c7:77:4a:a0:99:5c:f5:3c:5d:45:61:34:d7:d0:97:62:13:
         1a:13:e5:95:01:23:e7:4f:a6:9c:0d:94:fb:e4:3e:6d:82:70:
         35:e0:fd:34:e4:5a:16:c9:70:38:29:7e:2e:9f:f5:17:1e:be:
         a3:ba:23:23:0f:2c:1d:5f:b8:62:82:72:60:54:5b:9a:38:cb:
         27:71:3f:28:ce:8c:77:30:b8:a2:b4:b6:cd:36:9c:16:02:0b:
         57:a2:e1:53:d1:8d:b6:9c:a4:7a:7e:da:61:67:1f:db:11:06:
         86:82:ce:d7:ca:64:55:91:51:a2:22:90:28:9d:48:52:14:99:
         e7:70:78:e3:00:5f:5d:5b:87:9e:9a:eb:b7:0c:53:db:8a:20:
         37:b7:df:40:9b:24:14:cd:79:c7:64:4b:63:74:bf:aa:00:c1:
         7e:c3:0a:df
-----BEGIN CERTIFICATE-----
MIID6TCCAtGgAwIBAgIEEAAA2jANBgkqhkiG9w0BAQsFADBEMQswCQYDVQQGEwJE
RTEPMA0GA1UECAwGSGVzc2VuMRQwEgYDVQQKDAtwcml2YWN5aWRlYTEOMAwGA1UE
AwwFQ0EwMDEwHhcNMjEwODIwMTQzMDQ1WhcNMjIwODIwMTQzMDQ1WjAXMRUwEwYD
VQQDDAxjbj1jb3JuZWxpdXMwggEiMA0GCSqGSIb3DQEBAQUAA4IBDwAwggEKAoIB
AQDOpDkwJXPkneY3O4VZg++jbvmDufdIsAvV6AVAYc3FWrwRL1tO0E+40Oh/Baut
JAuQ1D9g7BW2Tr6O2Sar8i9/NcKmobxSOtmI+7P6cSC5UQ74rw0Wvr1duasw1axr
PLzuKEpPb9QJFfeYr3fbNhUuHu4P0Nlgrdu5xD/GJTL54+lQuOyEoMTSnP3OJYCF
fjqtTKdAGwpYGJ/CXjbh0UTpRrbctCii7O0C9yV54YaOaWdS7oIht4QtzOeoOVd9
ox7pUGN3Kavkpf/c7kxLXggrYggtdbgmbJPr9UXqzYNYUxVG5mtDwS/ZiEs91f0M
/1FS7VT7Jy1Z70xQznHN61qZAgMBAAGjggEOMIIBCjALBgNVHQ8EBAMCBaAwCQYD
VR0TBAIwADARBglghkgBhvhCAQEEBAMCBkAwMwYJYIZIAYb4QgENBCYWJE9wZW5T
U0wgR2VuZXJhdGVkIFNlcnZlciBDZXJ0aWZpY2F0ZTAdBgNVHQ4EFgQUDtW6Tn2S
VxX9YU40W+li0CAcfQgwdAYDVR0jBG0wa4AU9KfAzJFGr2TzkfIn+Miyb4qHMnOh
SKRGMEQxCzAJBgNVBAYTAkRFMQ8wDQYDVQQIDAZIZXNzZW4xFDASBgNVBAoMC3By
aXZhY3lpZGVhMQ4wDAYDVQQDDAVDQTAwMYIJAPvI66yDzRIHMBMGA1UdJQQMMAoG
CCsGAQUFBwMBMA0GCSqGSIb3DQEBCwUAA4IBAQCcTmmfk1q4sAyl5qAxe0JbPwMk
VFnVqePpfyme0IhfVZ+sIHIKgdEVBxFQlvpuJ05DIANCwFe/0d1ZYq4/ZQkGTWp4
+cNtPNHkyg+vIxYJebdGCo2JDUdEIHjfx3dKoJlc9TxdRWE019CXYhMaE+WVASPn
T6acDZT75D5tgnA14P005FoWyXA4KX4un/UXHr6juiMjDywdX7hignJgVFuaOMsn
cT8ozox3MLiitLbNNpwWAgtXouFT0Y22nKR6ftphZx/bEQaGgs7XymRVkVGiIpAo
nUhSFJnncHjjAF9dW4eemuu3DFPbiiA3t99AmyQUzXnHZEtjdL+qAMF+wwrf
-----END CERTIFICATE-----
